target datalayout = "e-m:e-p270:32:32-p271:32:32-p272:64:64-i64:64-i128:128-f80:128-n8:16:32:64-S128"
target triple = "x86_64-pc-linux-gnu"

%struct.AVFormatContext = type { ptr, ptr, ptr, ptr, ptr, i32, i32, ptr, i32, ptr, i32, ptr, ptr, i64, i64, i64, i32, i32, i32, i64, i64, ptr, i32, i32, ptr, i32, i32, i32, i32, ptr, i64, i32, i32, %struct.AVIOInterruptCB, i32, i32, i32, i32, i64, i32, i32, i32, i32, i32, i32, i32, i32, i32, i32, i32, i32, i64, i32, i32, i32, i32, i32, ptr, ptr, ptr, ptr, i32, ptr, ptr, ptr, ptr, i32, ptr, ptr, i64, ptr, ptr, ptr, i64 }
%struct.AVIOInterruptCB = type { ptr, ptr }
%struct.AMVContext = type { i64, i64, i64, i32, i32, i32, i32, ptr, ptr, [2 x i64] }
%struct.AVStream = type { ptr, i32, i32, ptr, ptr, %struct.AVRational, i64, i64, i64, i32, i32, %struct.AVRational, ptr, %struct.AVRational, %struct.AVPacket, i32, %struct.AVRational, i32 }
%struct.AVPacket = type { ptr, i64, i64, ptr, i32, i32, i32, ptr, i32, i64, i64, ptr, ptr, %struct.AVRational }
%struct.AVRational = type { i32, i32 }

@.str.9 = private unnamed_addr constant [30 x i8] c"Assertion %s failed at %s:%d\0A\00", align 1
@.str.11 = private unnamed_addr constant [21 x i8] c"libavformat/amvenc.c\00", align 1
@.str.16 = private unnamed_addr constant [15 x i8] c"(start&1) == 0\00", align 1
@.str.21 = private unnamed_addr constant [5 x i8] c"AMV_\00", align 1
@.str.22 = private unnamed_addr constant [5 x i8] c"END_\00", align 1

; Function Attrs: alwaysinline nounwind uwtable
define internal i64 @avio_tell(ptr noundef %0) #4 {
  %2 = alloca ptr, align 8
  store ptr %0, ptr %2, align 8, !tbaa !29
  %3 = load ptr, ptr %2, align 8, !tbaa !29
  %4 = call i64 @avio_seek(ptr noundef %3, i64 noundef 0, i32 noundef 1)
  ret i64 %4
}

; Function Attrs: alwaysinline nounwind uwtable
define internal void @ffio_wfourcc(ptr noundef %0, ptr noundef %1) #4 {
  %3 = alloca ptr, align 8
  %4 = alloca ptr, align 8
  store ptr %0, ptr %3, align 8, !tbaa !29
  store ptr %1, ptr %4, align 8, !tbaa !78
  %5 = load ptr, ptr %3, align 8, !tbaa !29
  %6 = load ptr, ptr %4, align 8, !tbaa !78
  %7 = getelementptr inbounds i8, ptr %6, i64 0
  %8 = load i8, ptr %7, align 1, !tbaa !38
  %9 = zext i8 %8 to i32
  %10 = load ptr, ptr %4, align 8, !tbaa !78
  %11 = getelementptr inbounds i8, ptr %10, i64 1
  %12 = load i8, ptr %11, align 1, !tbaa !38
  %13 = zext i8 %12 to i32
  %14 = shl i32 %13, 8
  %15 = or i32 %9, %14
  %16 = load ptr, ptr %4, align 8, !tbaa !78
  %17 = getelementptr inbounds i8, ptr %16, i64 2
  %18 = load i8, ptr %17, align 1, !tbaa !38
  %19 = zext i8 %18 to i32
  %20 = shl i32 %19, 16
  %21 = or i32 %15, %20
  %22 = load ptr, ptr %4, align 8, !tbaa !78
  %23 = getelementptr inbounds i8, ptr %22, i64 3
  %24 = load i8, ptr %23, align 1, !tbaa !38
  %25 = zext i8 %24 to i32
  %26 = shl i32 %25, 24
  %27 = or i32 %21, %26
  call void @avio_wl32(ptr noundef %5, i32 noundef %27)
  ret void
}

; Function Attrs: nounwind uwtable
define internal void @amv_end_tag(ptr noundef %0, i64 noundef %1) #0 {
  %3 = alloca ptr, align 8
  %4 = alloca i64, align 8
  %5 = alloca i64, align 8
  store ptr %0, ptr %3, align 8, !tbaa !29
  store i64 %1, ptr %4, align 8, !tbaa !36
  call void @llvm.lifetime.start.p0(i64 8, ptr %5) #8
  br label %6

6:                                                ; preds = %2
  %7 = load i64, ptr %4, align 8, !tbaa !36
  %8 = and i64 %7, 1
  %9 = icmp eq i64 %8, 0
  br i1 %9, label %11, label %10

10:                                               ; preds = %6
  call void (ptr, i32, ptr, ...) @av_log(ptr noundef null, i32 noundef 0, ptr noundef @.str.9, ptr noundef @.str.16, ptr noundef @.str.11, i32 noundef 87)
  call void @abort() #10
  unreachable

11:                                               ; preds = %6
  br label %12

12:                                               ; preds = %11
  br label %13

13:                                               ; preds = %12
  %14 = load ptr, ptr %3, align 8, !tbaa !29
  %15 = call i64 @avio_tell(ptr noundef %14)
  store i64 %15, ptr %5, align 8, !tbaa !36
  %16 = load i64, ptr %5, align 8, !tbaa !36
  %17 = and i64 %16, 1
  %18 = icmp ne i64 %17, 0
  br i1 %18, label %19, label %21

19:                                               ; preds = %13
  %20 = load ptr, ptr %3, align 8, !tbaa !29
  call void @avio_w8(ptr noundef %20, i32 noundef 0)
  br label %21

21:                                               ; preds = %19, %13
  call void @llvm.lifetime.end.p0(i64 8, ptr %5) #8
  ret void
}

; Function Attrs: nounwind uwtable
define internal i32 @amv_write_trailer(ptr noundef %0) #0 {
  %2 = alloca i32, align 4
  %3 = alloca ptr, align 8
  %4 = alloca ptr, align 8
  %5 = alloca ptr, align 8
  %6 = alloca ptr, align 8
  %7 = alloca i64, align 8
  %8 = alloca i64, align 8
  %9 = alloca i32, align 4
  %10 = alloca i32, align 4
  %11 = alloca i32, align 4
  %12 = alloca i32, align 4
  %13 = alloca %struct.AVRational, align 4
  %14 = alloca %struct.AVRational, align 4
  %15 = alloca %struct.AVRational, align 4
  %16 = alloca %struct.AVRational, align 4
  store ptr %0, ptr %3, align 8, !tbaa !4
  call void @llvm.lifetime.start.p0(i64 8, ptr %4) #8
  %17 = load ptr, ptr %3, align 8, !tbaa !4
  %18 = getelementptr inbounds nuw %struct.AVFormatContext, ptr %17, i32 0, i32 3
  %19 = load ptr, ptr %18, align 8, !tbaa !9
  store ptr %19, ptr %4, align 8, !tbaa !26
  call void @llvm.lifetime.start.p0(i64 8, ptr %5) #8
  %20 = load ptr, ptr %3, align 8, !tbaa !4
  %21 = getelementptr inbounds nuw %struct.AVFormatContext, ptr %20, i32 0, i32 7
  %22 = load ptr, ptr %21, align 8, !tbaa !30
  %23 = getelementptr inbounds ptr, ptr %22, i64 0
  %24 = load ptr, ptr %23, align 8, !tbaa !31
  store ptr %24, ptr %5, align 8, !tbaa !31
  call void @llvm.lifetime.start.p0(i64 8, ptr %6) #8
  %25 = load ptr, ptr %3, align 8, !tbaa !4
  %26 = getelementptr inbounds nuw %struct.AVFormatContext, ptr %25, i32 0, i32 7
  %27 = load ptr, ptr %26, align 8, !tbaa !30
  %28 = getelementptr inbounds ptr, ptr %27, i64 1
  %29 = load ptr, ptr %28, align 8, !tbaa !31
  store ptr %29, ptr %6, align 8, !tbaa !31
  call void @llvm.lifetime.start.p0(i64 8, ptr %7) #8
  call void @llvm.lifetime.start.p0(i64 8, ptr %8) #8
  call void @llvm.lifetime.start.p0(i64 4, ptr %9) #8
  call void @llvm.lifetime.start.p0(i64 4, ptr %10) #8
  call void @llvm.lifetime.start.p0(i64 4, ptr %11) #8
  %30 = load ptr, ptr %4, align 8, !tbaa !26
  %31 = getelementptr inbounds nuw %struct.AMVContext, ptr %30, i32 0, i32 3
  %32 = load i32, ptr %31, align 8, !tbaa !58
  %33 = icmp eq i32 %32, 0
  br i1 %33, label %34, label %46

34:                                               ; preds = %1
  %35 = load ptr, ptr %3, align 8, !tbaa !4
  %36 = load ptr, ptr %4, align 8, !tbaa !26
  %37 = getelementptr inbounds nuw %struct.AMVContext, ptr %36, i32 0, i32 7
  %38 = load ptr, ptr %37, align 8, !tbaa !59
  %39 = call i32 @amv_write_packet_internal(ptr noundef %35, ptr noundef %38)
  %40 = sext i32 %39 to i64
  store i64 %40, ptr %8, align 8, !tbaa !36
  %41 = icmp slt i64 %40, 0
  br i1 %41, label %42, label %45

42:                                               ; preds = %34
  %43 = load i64, ptr %8, align 8, !tbaa !36
  %44 = trunc i64 %43 to i32
  store i32 %44, ptr %2, align 4
  store i32 1, ptr %12, align 4
  br label %149

45:                                               ; preds = %34
  br label %46

46:                                               ; preds = %45, %1
  %47 = load ptr, ptr %3, align 8, !tbaa !4
  %48 = getelementptr inbounds nuw %struct.AVFormatContext, ptr %47, i32 0, i32 4
  %49 = load ptr, ptr %48, align 8, !tbaa !28
  %50 = load ptr, ptr %4, align 8, !tbaa !26
  %51 = getelementptr inbounds nuw %struct.AMVContext, ptr %50, i32 0, i32 1
  %52 = load i64, ptr %51, align 8, !tbaa !53
  call void @amv_end_tag(ptr noundef %49, i64 noundef %52)
  %53 = load ptr, ptr %3, align 8, !tbaa !4
  %54 = getelementptr inbounds nuw %struct.AVFormatContext, ptr %53, i32 0, i32 4
  %55 = load ptr, ptr %54, align 8, !tbaa !28
  %56 = load ptr, ptr %4, align 8, !tbaa !26
  %57 = getelementptr inbounds nuw %struct.AMVContext, ptr %56, i32 0, i32 0
  %58 = load i64, ptr %57, align 8, !tbaa !33
  call void @amv_end_tag(ptr noundef %55, i64 noundef %58)
  %59 = load ptr, ptr %3, align 8, !tbaa !4
  %60 = getelementptr inbounds nuw %struct.AVFormatContext, ptr %59, i32 0, i32 4
  %61 = load ptr, ptr %60, align 8, !tbaa !28
  call void @ffio_wfourcc(ptr noundef %61, ptr noundef @.str.21)
  %62 = load ptr, ptr %3, align 8, !tbaa !4
  %63 = getelementptr inbounds nuw %struct.AVFormatContext, ptr %62, i32 0, i32 4
  %64 = load ptr, ptr %63, align 8, !tbaa !28
  call void @ffio_wfourcc(ptr noundef %64, ptr noundef @.str.22)
  %65 = load ptr, ptr %3, align 8, !tbaa !4
  %66 = getelementptr inbounds nuw %struct.AVFormatContext, ptr %65, i32 0, i32 4
  %67 = load ptr, ptr %66, align 8, !tbaa !28
  %68 = load ptr, ptr %4, align 8, !tbaa !26
  %69 = getelementptr inbounds nuw %struct.AMVContext, ptr %68, i32 0, i32 2
  %70 = load i64, ptr %69, align 8, !tbaa !52
  %71 = call i64 @avio_seek(ptr noundef %67, i64 noundef %70, i32 noundef 0)
  store i64 %71, ptr %8, align 8, !tbaa !36
  %72 = icmp slt i64 %71, 0
  br i1 %72, label %73, label %76

73:                                               ; preds = %46
  %74 = load i64, ptr %8, align 8, !tbaa !36
  %75 = trunc i64 %74 to i32
  store i32 %75, ptr %2, align 4
  store i32 1, ptr %12, align 4
  br label %149

76:                                               ; preds = %46
  %77 = load ptr, ptr %4, align 8, !tbaa !26
  %78 = getelementptr inbounds nuw %struct.AMVContext, ptr %77, i32 0, i32 9
  %79 = getelementptr inbounds [2 x i64], ptr %78, i64 0, i64 0
  %80 = load i64, ptr %79, align 8, !tbaa !36
  %81 = load ptr, ptr %5, align 8, !tbaa !31
  %82 = getelementptr inbounds nuw %struct.AVStream, ptr %81, i32 0, i32 5
  %83 = getelementptr inbounds nuw %struct.AVRational, ptr %13, i32 0, i32 0
  store i32 1, ptr %83, align 4, !tbaa !60
  %84 = getelementptr inbounds nuw %struct.AVRational, ptr %13, i32 0, i32 1
  store i32 1000000, ptr %84, align 4, !tbaa !61
  %85 = load i64, ptr %82, align 8
  %86 = load i64, ptr %13, align 4
  %87 = call i64 @av_rescale_q(i64 noundef %80, i64 %85, i64 %86) #9
  %88 = load ptr, ptr %4, align 8, !tbaa !26
  %89 = getelementptr inbounds nuw %struct.AMVContext, ptr %88, i32 0, i32 9
  %90 = getelementptr inbounds [2 x i64], ptr %89, i64 0, i64 1
  %91 = load i64, ptr %90, align 8, !tbaa !36
  %92 = load ptr, ptr %6, align 8, !tbaa !31
  %93 = getelementptr inbounds nuw %struct.AVStream, ptr %92, i32 0, i32 5
  %94 = getelementptr inbounds nuw %struct.AVRational, ptr %14, i32 0, i32 0
  store i32 1, ptr %94, align 4, !tbaa !60
  %95 = getelementptr inbounds nuw %struct.AVRational, ptr %14, i32 0, i32 1
  store i32 1000000, ptr %95, align 4, !tbaa !61
  %96 = load i64, ptr %93, align 8
  %97 = load i64, ptr %14, align 4
  %98 = call i64 @av_rescale_q(i64 noundef %91, i64 %96, i64 %97) #9
  %99 = icmp sgt i64 %87, %98
  br i1 %99, label %100, label %112

100:                                              ; preds = %76
  %101 = load ptr, ptr %4, align 8, !tbaa !26
  %102 = getelementptr inbounds nuw %struct.AMVContext, ptr %101, i32 0, i32 9
  %103 = getelementptr inbounds [2 x i64], ptr %102, i64 0, i64 0
  %104 = load i64, ptr %103, align 8, !tbaa !36
  %105 = load ptr, ptr %5, align 8, !tbaa !31
  %106 = getelementptr inbounds nuw %struct.AVStream, ptr %105, i32 0, i32 5
  %107 = getelementptr inbounds nuw %struct.AVRational, ptr %15, i32 0, i32 0
  store i32 1, ptr %107, align 4, !tbaa !60
  %108 = getelementptr inbounds nuw %struct.AVRational, ptr %15, i32 0, i32 1
  store i32 1000000, ptr %108, align 4, !tbaa !61
  %109 = load i64, ptr %106, align 8
  %110 = load i64, ptr %15, align 4
  %111 = call i64 @av_rescale_q(i64 noundef %104, i64 %109, i64 %110) #9
  br label %124

112:                                              ; preds = %76
  %113 = load ptr, ptr %4, align 8, !tbaa !26
  %114 = getelementptr inbounds nuw %struct.AMVContext, ptr %113, i32 0, i32 9
  %115 = getelementptr inbounds [2 x i64], ptr %114, i64 0, i64 1
  %116 = load i64, ptr %115, align 8, !tbaa !36
  %117 = load ptr, ptr %6, align 8, !tbaa !31
  %118 = getelementptr inbounds nuw %struct.AVStream, ptr %117, i32 0, i32 5
  %119 = getelementptr inbounds nuw %struct.AVRational, ptr %16, i32 0, i32 0
  store i32 1, ptr %119, align 4, !tbaa !60
  %120 = getelementptr inbounds nuw %struct.AVRational, ptr %16, i32 0, i32 1
  store i32 1000000, ptr %120, align 4, !tbaa !61
  %121 = load i64, ptr %118, align 8
  %122 = load i64, ptr %16, align 4
  %123 = call i64 @av_rescale_q(i64 noundef %116, i64 %121, i64 %122) #9
  br label %124

124:                                              ; preds = %112, %100
  %125 = phi i64 [ %111, %100 ], [ %123, %112 ]
  store i64 %125, ptr %7, align 8, !tbaa !36
  %126 = load i64, ptr %7, align 8, !tbaa !36
  %127 = sdiv i64 %126, 1000000
  %128 = trunc i64 %127 to i32
  store i32 %128, ptr %11, align 4, !tbaa !55
  %129 = load i32, ptr %11, align 4, !tbaa !55
  %130 = sdiv i32 %129, 60
  store i32 %130, ptr %10, align 4, !tbaa !55
  %131 = load i32, ptr %10, align 4, !tbaa !55
  %132 = sdiv i32 %131, 60
  store i32 %132, ptr %9, align 4, !tbaa !55
  %133 = load i32, ptr %11, align 4, !tbaa !55
  %134 = srem i32 %133, 60
  store i32 %134, ptr %11, align 4, !tbaa !55
  %135 = load i32, ptr %10, align 4, !tbaa !55
  %136 = srem i32 %135, 60
  store i32 %136, ptr %10, align 4, !tbaa !55
  %137 = load ptr, ptr %3, align 8, !tbaa !4
  %138 = getelementptr inbounds nuw %struct.AVFormatContext, ptr %137, i32 0, i32 4
  %139 = load ptr, ptr %138, align 8, !tbaa !28
  %140 = load i32, ptr %11, align 4, !tbaa !55
  call void @avio_w8(ptr noundef %139, i32 noundef %140)
  %141 = load ptr, ptr %3, align 8, !tbaa !4
  %142 = getelementptr inbounds nuw %struct.AVFormatContext, ptr %141, i32 0, i32 4
  %143 = load ptr, ptr %142, align 8, !tbaa !28
  %144 = load i32, ptr %10, align 4, !tbaa !55
  call void @avio_w8(ptr noundef %143, i32 noundef %144)
  %145 = load ptr, ptr %3, align 8, !tbaa !4
  %146 = getelementptr inbounds nuw %struct.AVFormatContext, ptr %145, i32 0, i32 4
  %147 = load ptr, ptr %146, align 8, !tbaa !28
  %148 = load i32, ptr %9, align 4, !tbaa !55
  call void @avio_wl16(ptr noundef %147, i32 noundef %148)
  store i32 0, ptr %2, align 4
  store i32 1, ptr %12, align 4
  br label %149

149:                                              ; preds = %124, %73, %42
  call void @llvm.lifetime.end.p0(i64 4, ptr %11) #8
  call void @llvm.lifetime.end.p0(i64 4, ptr %10) #8
  call void @llvm.lifetime.end.p0(i64 4, ptr %9) #8
  call void @llvm.lifetime.end.p0(i64 8, ptr %8) #8
  call void @llvm.lifetime.end.p0(i64 8, ptr %7) #8
  call void @llvm.lifetime.end.p0(i64 8, ptr %6) #8
  call void @llvm.lifetime.end.p0(i64 8, ptr %5) #8
  call void @llvm.lifetime.end.p0(i64 8, ptr %4) #8
  %150 = load i32, ptr %2, align 4
  ret i32 %150
}