; Function Attrs: nounwind uwtable
define internal i32 @amv_write_trailer(ptr noundef %0) #0 {
  %2 = getelementptr inbounds nuw i8, ptr %0, i64 24
  %3 = load ptr, ptr %2, align 8, !tbaa !4
  %4 = getelementptr inbounds nuw i8, ptr %0, i64 48
  %5 = load ptr, ptr %4, align 8, !tbaa !25
  %6 = load ptr, ptr %5, align 8, !tbaa !26
  %7 = getelementptr inbounds nuw i8, ptr %5, i64 8
  %8 = load ptr, ptr %7, align 8, !tbaa !26
  %9 = getelementptr inbounds nuw i8, ptr %3, i64 24
  %10 = load i32, ptr %9, align 8, !tbaa !52
  %11 = icmp eq i32 %10, 0
  br i1 %11, label %12, label %15

12:                                               ; preds = %1
  %13 = getelementptr inbounds nuw i8, ptr %3, i64 40
  %14 = load ptr, ptr %13, align 8, !tbaa !56
  tail call fastcc void @amv_write_packet_internal(ptr noundef nonnull %0, ptr noundef %14)
  br label %15

15:                                               ; preds = %12, %1
  %16 = getelementptr inbounds nuw i8, ptr %0, i64 32
  %17 = load ptr, ptr %16, align 8, !tbaa !24
  %18 = getelementptr inbounds nuw i8, ptr %3, i64 8
  %19 = load i64, ptr %18, align 8, !tbaa !50
  %20 = and i64 %19, 1
  %21 = icmp eq i64 %20, 0
  br i1 %21, label %23, label %22

22:                                               ; preds = %15
  tail call void (ptr, i32, ptr, ...) @av_log(ptr noundef null, i32 noundef 0, ptr noundef nonnull @.str.9, ptr noundef nonnull @.str.16, ptr noundef nonnull @.str.11, i32 noundef 87) #8
  tail call void @abort() #9
  unreachable

23:                                               ; preds = %15
  %24 = tail call i64 @avio_seek(ptr noundef %17, i64 noundef 0, i32 noundef 1) #8
  %25 = and i64 %24, 1
  %.not.i = icmp eq i64 %25, 0
  br i1 %.not.i, label %amv_end_tag.exit, label %26

26:                                               ; preds = %23
  tail call void @avio_w8(ptr noundef %17, i32 noundef 0) #8
  br label %amv_end_tag.exit

amv_end_tag.exit:                                 ; preds = %23, %26
  %27 = load ptr, ptr %16, align 8, !tbaa !24
  %28 = load i64, ptr %3, align 8, !tbaa !28
  %29 = and i64 %28, 1
  %30 = icmp eq i64 %29, 0
  br i1 %30, label %32, label %31

31:                                               ; preds = %amv_end_tag.exit
  tail call void (ptr, i32, ptr, ...) @av_log(ptr noundef null, i32 noundef 0, ptr noundef nonnull @.str.9, ptr noundef nonnull @.str.16, ptr noundef nonnull @.str.11, i32 noundef 87) #8
  tail call void @abort() #9
  unreachable

32:                                               ; preds = %amv_end_tag.exit
  %33 = tail call i64 @avio_seek(ptr noundef %27, i64 noundef 0, i32 noundef 1) #8
  %34 = and i64 %33, 1
  %.not.i44 = icmp eq i64 %34, 0
  br i1 %.not.i44, label %amv_end_tag.exit45, label %35

35:                                               ; preds = %32
  tail call void @avio_w8(ptr noundef %27, i32 noundef 0) #8
  br label %amv_end_tag.exit45

amv_end_tag.exit45:                               ; preds = %32, %35
  %36 = load ptr, ptr %16, align 8, !tbaa !24
  tail call void @avio_wl32(ptr noundef %36, i32 noundef 1599491393) #8
  %37 = load ptr, ptr %16, align 8, !tbaa !24
  tail call void @avio_wl32(ptr noundef %37, i32 noundef 1598312005) #8
  %38 = load ptr, ptr %16, align 8, !tbaa !24
  %39 = getelementptr inbounds nuw i8, ptr %3, i64 16
  %40 = load i64, ptr %39, align 8, !tbaa !46
  %41 = tail call i64 @avio_seek(ptr noundef %38, i64 noundef %40, i32 noundef 0) #8
  %42 = icmp slt i64 %41, 0
  br i1 %42, label %43, label %45

43:                                               ; preds = %amv_end_tag.exit45
  %44 = trunc i64 %41 to i32
  br label %65

45:                                               ; preds = %amv_end_tag.exit45
  %46 = getelementptr inbounds nuw i8, ptr %3, i64 56
  %47 = load i64, ptr %46, align 8, !tbaa !57
  %48 = getelementptr inbounds nuw i8, ptr %6, i64 32
  %49 = load i64, ptr %48, align 8
  %50 = tail call i64 @av_rescale_q(i64 noundef %47, i64 %49, i64 4294967296000001) #10
  %51 = getelementptr inbounds nuw i8, ptr %3, i64 64
  %52 = load i64, ptr %51, align 8, !tbaa !57
  %53 = getelementptr inbounds nuw i8, ptr %8, i64 32
  %54 = load i64, ptr %53, align 8
  %55 = tail call i64 @av_rescale_q(i64 noundef %52, i64 %54, i64 4294967296000001) #10
  %. = tail call i64 @llvm.smax.i64(i64 %50, i64 %55)
  %56 = sdiv i64 %., 1000000
  %57 = trunc i64 %56 to i32
  %58 = sdiv i32 %57, 60
  %59 = sdiv i32 %57, 3600
  %60 = srem i32 %57, 60
  %61 = srem i32 %58, 60
  %62 = load ptr, ptr %16, align 8, !tbaa !24
  tail call void @avio_w8(ptr noundef %62, i32 noundef %60) #8
  %63 = load ptr, ptr %16, align 8, !tbaa !24
  tail call void @avio_w8(ptr noundef %63, i32 noundef %61) #8
  %64 = load ptr, ptr %16, align 8, !tbaa !24
  tail call void @avio_wl16(ptr noundef %64, i32 noundef %59) #8
  br label %65

65:                                               ; preds = %45, %43
  %.0 = phi i32 [ %44, %43 ], [ 0, %45 ]
  ret i32 %.0
}